target datalayout = "e-m:e-p270:32:32-p271:32:32-p272:64:64-i64:64-i128:128-f80:128-n8:16:32:64-S128"
target triple = "x86_64-pc-linux-gnu"

; Function Attrs: nounwind uwtable
define internal ptr @local_getline(ptr noundef %0, ptr noundef %1) #0 {
  %3 = alloca ptr, align 8
  %4 = alloca ptr, align 8
  %5 = alloca ptr, align 8
  %6 = alloca ptr, align 8
  %7 = alloca i32, align 4
  %8 = alloca i32, align 4
  %9 = alloca i32, align 4
  store ptr %0, ptr %4, align 8, !tbaa !18
  store ptr %1, ptr %5, align 8, !tbaa !90
  call void @llvm.lifetime.start.p0(i64 8, ptr %6) #10
  call void @llvm.lifetime.start.p0(i64 4, ptr %7) #10
  call void @llvm.lifetime.start.p0(i64 4, ptr %8) #10
  store i32 100, ptr %7, align 4, !tbaa !8
  %10 = load i32, ptr %7, align 4, !tbaa !8
  %11 = sext i32 %10 to i64
  %12 = call noalias ptr @malloc(i64 noundef %11) #12
  store ptr %12, ptr %6, align 8, !tbaa !18
  %13 = load ptr, ptr %6, align 8, !tbaa !18
  %14 = icmp eq ptr %13, null
  br i1 %14, label %15, label %16

15:                                               ; preds = %2
  store ptr null, ptr %3, align 8
  store i32 1, ptr %9, align 4
  br label %94

16:                                               ; preds = %2
  store i32 0, ptr %8, align 4, !tbaa !8
  br label %17

17:                                               ; preds = %86, %16
  br label %18

18:                                               ; preds = %17
  %19 = load i32, ptr %8, align 4, !tbaa !8
  %20 = add nsw i32 %19, 100
  %21 = load i32, ptr %7, align 4, !tbaa !8
  %22 = icmp sgt i32 %20, %21
  br i1 %22, label %23, label %35

23:                                               ; preds = %18
  %24 = load i32, ptr %7, align 4, !tbaa !8
  %25 = mul nsw i32 %24, 2
  %26 = add nsw i32 %25, 100
  store i32 %26, ptr %7, align 4, !tbaa !8
  %27 = load ptr, ptr %6, align 8, !tbaa !18
  %28 = load i32, ptr %7, align 4, !tbaa !8
  %29 = sext i32 %28 to i64
  %30 = call ptr @realloc(ptr noundef %27, i64 noundef %29) #13
  store ptr %30, ptr %6, align 8, !tbaa !18
  %31 = load ptr, ptr %6, align 8, !tbaa !18
  %32 = icmp eq ptr %31, null
  br i1 %32, label %33, label %34

33:                                               ; preds = %23
  store ptr null, ptr %3, align 8
  store i32 1, ptr %9, align 4
  br label %94

34:                                               ; preds = %23
  br label %35

35:                                               ; preds = %34, %18
  %36 = load ptr, ptr %6, align 8, !tbaa !18
  %37 = load i32, ptr %8, align 4, !tbaa !8
  %38 = sext i32 %37 to i64
  %39 = getelementptr inbounds i8, ptr %36, i64 %38
  %40 = load i32, ptr %7, align 4, !tbaa !8
  %41 = load i32, ptr %8, align 4, !tbaa !8
  %42 = sub nsw i32 %40, %41
  %43 = load ptr, ptr %5, align 8, !tbaa !90
  %44 = call ptr @fgets(ptr noundef %39, i32 noundef %42, ptr noundef %43)
  %45 = icmp eq ptr %44, null
  br i1 %45, label %46, label %56

46:                                               ; preds = %35
  %47 = load i32, ptr %8, align 4, !tbaa !8
  %48 = icmp eq i32 %47, 0
  br i1 %48, label %49, label %51

49:                                               ; preds = %46
  %50 = load ptr, ptr %6, align 8, !tbaa !18
  call void @free(ptr noundef %50) #10
  store ptr null, ptr %3, align 8
  store i32 1, ptr %9, align 4
  br label %94

51:                                               ; preds = %46
  %52 = load ptr, ptr %6, align 8, !tbaa !18
  %53 = load i32, ptr %8, align 4, !tbaa !8
  %54 = sext i32 %53 to i64
  %55 = getelementptr inbounds i8, ptr %52, i64 %54
  store i8 0, ptr %55, align 1, !tbaa !24
  br label %87

56:                                               ; preds = %35
  br label %57

57:                                               ; preds = %64, %56
  %58 = load ptr, ptr %6, align 8, !tbaa !18
  %59 = load i32, ptr %8, align 4, !tbaa !8
  %60 = sext i32 %59 to i64
  %61 = getelementptr inbounds i8, ptr %58, i64 %60
  %62 = load i8, ptr %61, align 1, !tbaa !24
  %63 = icmp ne i8 %62, 0
  br i1 %63, label %64, label %67

64:                                               ; preds = %57
  %65 = load i32, ptr %8, align 4, !tbaa !8
  %66 = add nsw i32 %65, 1
  store i32 %66, ptr %8, align 4, !tbaa !8
  br label %57, !llvm.loop !152

67:                                               ; preds = %57
  %68 = load i32, ptr %8, align 4, !tbaa !8
  %69 = icmp sgt i32 %68, 0
  br i1 %69, label %70, label %86

70:                                               ; preds = %67
  %71 = load ptr, ptr %6, align 8, !tbaa !18
  %72 = load i32, ptr %8, align 4, !tbaa !8
  %73 = sub nsw i32 %72, 1
  %74 = sext i32 %73 to i64
  %75 = getelementptr inbounds i8, ptr %71, i64 %74
  %76 = load i8, ptr %75, align 1, !tbaa !24
  %77 = sext i8 %76 to i32
  %78 = icmp eq i32 %77, 10
  br i1 %78, label %79, label %86

79:                                               ; preds = %70
  %80 = load i32, ptr %8, align 4, !tbaa !8
  %81 = add nsw i32 %80, -1
  store i32 %81, ptr %8, align 4, !tbaa !8
  %82 = load ptr, ptr %6, align 8, !tbaa !18
  %83 = load i32, ptr %8, align 4, !tbaa !8
  %84 = sext i32 %83 to i64
  %85 = getelementptr inbounds i8, ptr %82, i64 %84
  store i8 0, ptr %85, align 1, !tbaa !24
  br label %87

86:                                               ; preds = %70, %67
  br label %17

87:                                               ; preds = %79, %51
  %88 = load ptr, ptr %6, align 8, !tbaa !18
  %89 = load i32, ptr %8, align 4, !tbaa !8
  %90 = add nsw i32 %89, 1
  %91 = sext i32 %90 to i64
  %92 = call ptr @realloc(ptr noundef %88, i64 noundef %91) #13
  store ptr %92, ptr %6, align 8, !tbaa !18
  %93 = load ptr, ptr %6, align 8, !tbaa !18
  store ptr %93, ptr %3, align 8
  store i32 1, ptr %9, align 4
  br label %94

94:                                               ; preds = %87, %49, %33, %15
  call void @llvm.lifetime.end.p0(i64 4, ptr %8) #10
  call void @llvm.lifetime.end.p0(i64 4, ptr %7) #10
  call void @llvm.lifetime.end.p0(i64 8, ptr %6) #10
  %95 = load ptr, ptr %3, align 8
  ret ptr %95
}