; Function Attrs: nounwind uwtable
define internal fastcc noalias noundef ptr @local_getline(ptr noundef nonnull captures(none) %0) unnamed_addr #0 {
  %2 = tail call noalias dereferenceable_or_null(100) ptr @malloc(i64 noundef 100) #16
  %3 = icmp eq ptr %2, null
  br i1 %3, label %.loopexit, label %.preheader1

.preheader1:                                      ; preds = %1, %.preheader1.backedge
  %.031 = phi ptr [ %.132, %.preheader1.backedge ], [ %2, %1 ]
  %.029 = phi i32 [ %.130, %.preheader1.backedge ], [ 100, %1 ]
  %.0 = phi i32 [ %26, %.preheader1.backedge ], [ 0, %1 ]
  %4 = add nsw i32 %.0, 100
  %5 = icmp sgt i32 %4, %.029
  br i1 %5, label %6, label %12

6:                                                ; preds = %.preheader1
  %7 = shl nsw i32 %.029, 1
  %8 = add nsw i32 %7, 100
  %9 = sext i32 %8 to i64
  %10 = tail call ptr @realloc(ptr noundef %.031, i64 noundef %9) #17
  %11 = icmp eq ptr %10, null
  br i1 %11, label %.loopexit, label %12

12:                                               ; preds = %6, %.preheader1
  %.132 = phi ptr [ %10, %6 ], [ %.031, %.preheader1 ]
  %.130 = phi i32 [ %8, %6 ], [ %.029, %.preheader1 ]
  %13 = sext i32 %.0 to i64
  %14 = getelementptr inbounds i8, ptr %.132, i64 %13
  %15 = sub nsw i32 %.130, %.0
  %16 = tail call ptr @fgets(ptr noundef %14, i32 noundef %15, ptr noundef nonnull %0)
  %17 = icmp eq ptr %16, null
  br i1 %17, label %18, label %.preheader

18:                                               ; preds = %12
  %19 = icmp eq i32 %.0, 0
  br i1 %19, label %20, label %21

20:                                               ; preds = %18
  tail call void @free(ptr noundef %.132) #14
  br label %.loopexit

21:                                               ; preds = %18
  store i8 0, ptr %14, align 1, !tbaa !18
  %22 = add nsw i32 %.0, 1
  br label %36

.preheader:                                       ; preds = %12, %.preheader
  %indvars.iv = phi i64 [ %indvars.iv.next, %.preheader ], [ %13, %12 ]
  %23 = getelementptr inbounds i8, ptr %.132, i64 %indvars.iv
  %24 = load i8, ptr %23, align 1, !tbaa !18
  %.not = icmp eq i8 %24, 0
  %indvars.iv.next = add nsw i64 %indvars.iv, 1
  br i1 %.not, label %25, label %.preheader, !llvm.loop !137

25:                                               ; preds = %.preheader
  %26 = trunc nsw i64 %indvars.iv to i32
  %27 = icmp sgt i64 %indvars.iv, 0
  br i1 %27, label %28, label %.preheader1.backedge

28:                                               ; preds = %25
  %29 = and i64 %indvars.iv, 4294967295
  %30 = getelementptr i8, ptr %.132, i64 %29
  %31 = getelementptr i8, ptr %30, i64 -1
  %32 = load i8, ptr %31, align 1, !tbaa !18
  %33 = icmp eq i8 %32, 10
  br i1 %33, label %34, label %.preheader1.backedge

.preheader1.backedge:                             ; preds = %28, %25
  br label %.preheader1

34:                                               ; preds = %28
  %35 = getelementptr i8, ptr %30, i64 -1
  store i8 0, ptr %35, align 1, !tbaa !18
  br label %36

36:                                               ; preds = %34, %21
  %.1 = phi i32 [ %22, %21 ], [ %26, %34 ]
  %37 = sext i32 %.1 to i64
  %38 = tail call ptr @realloc(ptr noundef nonnull %.132, i64 noundef %37) #17
  br label %.loopexit

.loopexit:                                        ; preds = %6, %1, %36, %20
  %.033 = phi ptr [ null, %20 ], [ %38, %36 ], [ null, %1 ], [ null, %6 ]
  ret ptr %.033
}